; Function Attrs: mustprogress nofree norecurse nosync nounwind willreturn memory(argmem: readwrite) uwtable
define internal noundef i32 @zueci_cp1251_u(ptr nocapture noundef readonly %0, i32 %1, i32 noundef %2, ptr nocapture noundef writeonly %3) #6 {
  %5 = load i8, ptr %0, align 1
  %6 = zext i8 %5 to i32
  %7 = icmp sgt i8 %5, -1
  br i1 %7, label %.sink.split.i, label %8

8:                                                ; preds = %4
  %9 = icmp ugt i8 %5, -97
  br i1 %9, label %10, label %21

10:                                               ; preds = %8
  %11 = add nsw i8 %5, 96
  %12 = zext nneg i8 %11 to i32
  %13 = lshr i32 %12, 4
  %14 = zext nneg i32 %13 to i64
  %15 = getelementptr inbounds i16, ptr @zueci_cp1251_s, i64 %14
  %16 = load i16, ptr %15, align 2
  %17 = zext i16 %16 to i32
  %18 = and i32 %12, 15
  %19 = shl nuw nsw i32 1, %18
  %20 = and i32 %19, %17
  %.not.i = icmp eq i32 %20, 0
  br i1 %.not.i, label %21, label %.sink.split.i

21:                                               ; preds = %10, %8
  %22 = zext i8 %5 to i64
  %23 = getelementptr i8, ptr @zueci_cp1251_sb_u, i64 %22
  %24 = getelementptr i8, ptr %23, i64 -128
  %25 = load i8, ptr %24, align 1
  %.not22.i = icmp eq i8 %25, -1
  br i1 %.not22.i, label %31, label %26

26:                                               ; preds = %21
  %27 = sext i8 %25 to i64
  %28 = getelementptr inbounds i16, ptr @zueci_cp1251_u_u, i64 %27
  %29 = load i16, ptr %28, align 2
  %30 = zext i16 %29 to i32
  br label %.sink.split.i

31:                                               ; preds = %21
  %32 = and i32 %2, 1
  %.not23.i = icmp eq i32 %32, 0
  br i1 %.not23.i, label %zueci_cp125x_u.exit, label %.sink.split.i

.sink.split.i:                                    ; preds = %31, %26, %10, %4
  %.sink.i = phi i32 [ %30, %26 ], [ %6, %4 ], [ %6, %10 ], [ %6, %31 ]
  store i32 %.sink.i, ptr %3, align 4
  br label %zueci_cp125x_u.exit

zueci_cp125x_u.exit:                              ; preds = %31, %.sink.split.i
  %.0.i = phi i32 [ 0, %31 ], [ 1, %.sink.split.i ]
  ret i32 %.0.i
}